target datalayout = "e-m:e-p270:32:32-p271:32:32-p272:64:64-i64:64-i128:128-f80:128-n8:16:32:64-S128"
target triple = "x86_64-pc-linux-gnu"

; Function Attrs: alwaysinline nounwind uwtable
define internal void @rv34_row_transform(ptr noundef %0, ptr noundef %1) #3 {
  %3 = alloca ptr, align 8
  %4 = alloca ptr, align 8
  %5 = alloca i32, align 4
  %6 = alloca i32, align 4
  %7 = alloca i32, align 4
  %8 = alloca i32, align 4
  %9 = alloca i32, align 4
  store ptr %0, ptr %3, align 8, !tbaa !32
  store ptr %1, ptr %4, align 8, !tbaa !14
  call void @llvm.lifetime.start.p0(i64 4, ptr %5) #6
  store i32 0, ptr %5, align 4, !tbaa !16
  br label %10

10:                                               ; preds = %116, %2
  %11 = load i32, ptr %5, align 4, !tbaa !16
  %12 = icmp slt i32 %11, 4
  br i1 %12, label %13, label %119

13:                                               ; preds = %10
  call void @llvm.lifetime.start.p0(i64 4, ptr %6) #6
  %14 = load ptr, ptr %4, align 8, !tbaa !14
  %15 = load i32, ptr %5, align 4, !tbaa !16
  %16 = add nsw i32 %15, 0
  %17 = sext i32 %16 to i64
  %18 = getelementptr inbounds i16, ptr %14, i64 %17
  %19 = load i16, ptr %18, align 2, !tbaa !18
  %20 = sext i16 %19 to i32
  %21 = load ptr, ptr %4, align 8, !tbaa !14
  %22 = load i32, ptr %5, align 4, !tbaa !16
  %23 = add nsw i32 %22, 8
  %24 = sext i32 %23 to i64
  %25 = getelementptr inbounds i16, ptr %21, i64 %24
  %26 = load i16, ptr %25, align 2, !tbaa !18
  %27 = sext i16 %26 to i32
  %28 = add nsw i32 %20, %27
  %29 = mul nsw i32 13, %28
  store i32 %29, ptr %6, align 4, !tbaa !16
  call void @llvm.lifetime.start.p0(i64 4, ptr %7) #6
  %30 = load ptr, ptr %4, align 8, !tbaa !14
  %31 = load i32, ptr %5, align 4, !tbaa !16
  %32 = add nsw i32 %31, 0
  %33 = sext i32 %32 to i64
  %34 = getelementptr inbounds i16, ptr %30, i64 %33
  %35 = load i16, ptr %34, align 2, !tbaa !18
  %36 = sext i16 %35 to i32
  %37 = load ptr, ptr %4, align 8, !tbaa !14
  %38 = load i32, ptr %5, align 4, !tbaa !16
  %39 = add nsw i32 %38, 8
  %40 = sext i32 %39 to i64
  %41 = getelementptr inbounds i16, ptr %37, i64 %40
  %42 = load i16, ptr %41, align 2, !tbaa !18
  %43 = sext i16 %42 to i32
  %44 = sub nsw i32 %36, %43
  %45 = mul nsw i32 13, %44
  store i32 %45, ptr %7, align 4, !tbaa !16
  call void @llvm.lifetime.start.p0(i64 4, ptr %8) #6
  %46 = load ptr, ptr %4, align 8, !tbaa !14
  %47 = load i32, ptr %5, align 4, !tbaa !16
  %48 = add nsw i32 %47, 4
  %49 = sext i32 %48 to i64
  %50 = getelementptr inbounds i16, ptr %46, i64 %49
  %51 = load i16, ptr %50, align 2, !tbaa !18
  %52 = sext i16 %51 to i32
  %53 = mul nsw i32 7, %52
  %54 = load ptr, ptr %4, align 8, !tbaa !14
  %55 = load i32, ptr %5, align 4, !tbaa !16
  %56 = add nsw i32 %55, 12
  %57 = sext i32 %56 to i64
  %58 = getelementptr inbounds i16, ptr %54, i64 %57
  %59 = load i16, ptr %58, align 2, !tbaa !18
  %60 = sext i16 %59 to i32
  %61 = mul nsw i32 17, %60
  %62 = sub nsw i32 %53, %61
  store i32 %62, ptr %8, align 4, !tbaa !16
  call void @llvm.lifetime.start.p0(i64 4, ptr %9) #6
  %63 = load ptr, ptr %4, align 8, !tbaa !14
  %64 = load i32, ptr %5, align 4, !tbaa !16
  %65 = add nsw i32 %64, 4
  %66 = sext i32 %65 to i64
  %67 = getelementptr inbounds i16, ptr %63, i64 %66
  %68 = load i16, ptr %67, align 2, !tbaa !18
  %69 = sext i16 %68 to i32
  %70 = mul nsw i32 17, %69
  %71 = load ptr, ptr %4, align 8, !tbaa !14
  %72 = load i32, ptr %5, align 4, !tbaa !16
  %73 = add nsw i32 %72, 12
  %74 = sext i32 %73 to i64
  %75 = getelementptr inbounds i16, ptr %71, i64 %74
  %76 = load i16, ptr %75, align 2, !tbaa !18
  %77 = sext i16 %76 to i32
  %78 = mul nsw i32 7, %77
  %79 = add nsw i32 %70, %78
  store i32 %79, ptr %9, align 4, !tbaa !16
  %80 = load i32, ptr %6, align 4, !tbaa !16
  %81 = load i32, ptr %9, align 4, !tbaa !16
  %82 = add nsw i32 %80, %81
  %83 = load ptr, ptr %3, align 8, !tbaa !32
  %84 = load i32, ptr %5, align 4, !tbaa !16
  %85 = mul nsw i32 4, %84
  %86 = add nsw i32 %85, 0
  %87 = sext i32 %86 to i64
  %88 = getelementptr inbounds i32, ptr %83, i64 %87
  store i32 %82, ptr %88, align 4, !tbaa !16
  %89 = load i32, ptr %7, align 4, !tbaa !16
  %90 = load i32, ptr %8, align 4, !tbaa !16
  %91 = add nsw i32 %89, %90
  %92 = load ptr, ptr %3, align 8, !tbaa !32
  %93 = load i32, ptr %5, align 4, !tbaa !16
  %94 = mul nsw i32 4, %93
  %95 = add nsw i32 %94, 1
  %96 = sext i32 %95 to i64
  %97 = getelementptr inbounds i32, ptr %92, i64 %96
  store i32 %91, ptr %97, align 4, !tbaa !16
  %98 = load i32, ptr %7, align 4, !tbaa !16
  %99 = load i32, ptr %8, align 4, !tbaa !16
  %100 = sub nsw i32 %98, %99
  %101 = load ptr, ptr %3, align 8, !tbaa !32
  %102 = load i32, ptr %5, align 4, !tbaa !16
  %103 = mul nsw i32 4, %102
  %104 = add nsw i32 %103, 2
  %105 = sext i32 %104 to i64
  %106 = getelementptr inbounds i32, ptr %101, i64 %105
  store i32 %100, ptr %106, align 4, !tbaa !16
  %107 = load i32, ptr %6, align 4, !tbaa !16
  %108 = load i32, ptr %9, align 4, !tbaa !16
  %109 = sub nsw i32 %107, %108
  %110 = load ptr, ptr %3, align 8, !tbaa !32
  %111 = load i32, ptr %5, align 4, !tbaa !16
  %112 = mul nsw i32 4, %111
  %113 = add nsw i32 %112, 3
  %114 = sext i32 %113 to i64
  %115 = getelementptr inbounds i32, ptr %110, i64 %114
  store i32 %109, ptr %115, align 4, !tbaa !16
  call void @llvm.lifetime.end.p0(i64 4, ptr %9) #6
  call void @llvm.lifetime.end.p0(i64 4, ptr %8) #6
  call void @llvm.lifetime.end.p0(i64 4, ptr %7) #6
  call void @llvm.lifetime.end.p0(i64 4, ptr %6) #6
  br label %116

116:                                              ; preds = %13
  %117 = load i32, ptr %5, align 4, !tbaa !16
  %118 = add nsw i32 %117, 1
  store i32 %118, ptr %5, align 4, !tbaa !16
  br label %10, !llvm.loop !34

119:                                              ; preds = %10
  call void @llvm.lifetime.end.p0(i64 4, ptr %5) #6
  ret void
}

; Function Attrs: nounwind uwtable
define internal void @rv34_inv_transform_noround_c(ptr noundef %0) #1 {
  %2 = alloca ptr, align 8
  %3 = alloca [16 x i32], align 16
  %4 = alloca i32, align 4
  %5 = alloca i32, align 4
  %6 = alloca i32, align 4
  %7 = alloca i32, align 4
  %8 = alloca i32, align 4
  store ptr %0, ptr %2, align 8, !tbaa !14
  call void @llvm.lifetime.start.p0(i64 64, ptr %3) #6
  call void @llvm.lifetime.start.p0(i64 4, ptr %4) #6
  %9 = getelementptr inbounds [16 x i32], ptr %3, i64 0, i64 0
  %10 = load ptr, ptr %2, align 8, !tbaa !14
  call void @rv34_row_transform(ptr noundef %9, ptr noundef %10)
  store i32 0, ptr %4, align 4, !tbaa !16
  br label %11

11:                                               ; preds = %109, %1
  %12 = load i32, ptr %4, align 4, !tbaa !16
  %13 = icmp slt i32 %12, 4
  br i1 %13, label %14, label %112

14:                                               ; preds = %11
  call void @llvm.lifetime.start.p0(i64 4, ptr %5) #6
  %15 = load i32, ptr %4, align 4, !tbaa !16
  %16 = add nsw i32 0, %15
  %17 = sext i32 %16 to i64
  %18 = getelementptr inbounds [16 x i32], ptr %3, i64 0, i64 %17
  %19 = load i32, ptr %18, align 4, !tbaa !16
  %20 = load i32, ptr %4, align 4, !tbaa !16
  %21 = add nsw i32 8, %20
  %22 = sext i32 %21 to i64
  %23 = getelementptr inbounds [16 x i32], ptr %3, i64 0, i64 %22
  %24 = load i32, ptr %23, align 4, !tbaa !16
  %25 = add nsw i32 %19, %24
  %26 = mul nsw i32 39, %25
  store i32 %26, ptr %5, align 4, !tbaa !16
  call void @llvm.lifetime.start.p0(i64 4, ptr %6) #6
  %27 = load i32, ptr %4, align 4, !tbaa !16
  %28 = add nsw i32 0, %27
  %29 = sext i32 %28 to i64
  %30 = getelementptr inbounds [16 x i32], ptr %3, i64 0, i64 %29
  %31 = load i32, ptr %30, align 4, !tbaa !16
  %32 = load i32, ptr %4, align 4, !tbaa !16
  %33 = add nsw i32 8, %32
  %34 = sext i32 %33 to i64
  %35 = getelementptr inbounds [16 x i32], ptr %3, i64 0, i64 %34
  %36 = load i32, ptr %35, align 4, !tbaa !16
  %37 = sub nsw i32 %31, %36
  %38 = mul nsw i32 39, %37
  store i32 %38, ptr %6, align 4, !tbaa !16
  call void @llvm.lifetime.start.p0(i64 4, ptr %7) #6
  %39 = load i32, ptr %4, align 4, !tbaa !16
  %40 = add nsw i32 4, %39
  %41 = sext i32 %40 to i64
  %42 = getelementptr inbounds [16 x i32], ptr %3, i64 0, i64 %41
  %43 = load i32, ptr %42, align 4, !tbaa !16
  %44 = mul nsw i32 21, %43
  %45 = load i32, ptr %4, align 4, !tbaa !16
  %46 = add nsw i32 12, %45
  %47 = sext i32 %46 to i64
  %48 = getelementptr inbounds [16 x i32], ptr %3, i64 0, i64 %47
  %49 = load i32, ptr %48, align 4, !tbaa !16
  %50 = mul nsw i32 51, %49
  %51 = sub nsw i32 %44, %50
  store i32 %51, ptr %7, align 4, !tbaa !16
  call void @llvm.lifetime.start.p0(i64 4, ptr %8) #6
  %52 = load i32, ptr %4, align 4, !tbaa !16
  %53 = add nsw i32 4, %52
  %54 = sext i32 %53 to i64
  %55 = getelementptr inbounds [16 x i32], ptr %3, i64 0, i64 %54
  %56 = load i32, ptr %55, align 4, !tbaa !16
  %57 = mul nsw i32 51, %56
  %58 = load i32, ptr %4, align 4, !tbaa !16
  %59 = add nsw i32 12, %58
  %60 = sext i32 %59 to i64
  %61 = getelementptr inbounds [16 x i32], ptr %3, i64 0, i64 %60
  %62 = load i32, ptr %61, align 4, !tbaa !16
  %63 = mul nsw i32 21, %62
  %64 = add nsw i32 %57, %63
  store i32 %64, ptr %8, align 4, !tbaa !16
  %65 = load i32, ptr %5, align 4, !tbaa !16
  %66 = load i32, ptr %8, align 4, !tbaa !16
  %67 = add nsw i32 %65, %66
  %68 = ashr i32 %67, 11
  %69 = trunc i32 %68 to i16
  %70 = load ptr, ptr %2, align 8, !tbaa !14
  %71 = load i32, ptr %4, align 4, !tbaa !16
  %72 = mul nsw i32 %71, 4
  %73 = add nsw i32 %72, 0
  %74 = sext i32 %73 to i64
  %75 = getelementptr inbounds i16, ptr %70, i64 %74
  store i16 %69, ptr %75, align 2, !tbaa !18
  %76 = load i32, ptr %6, align 4, !tbaa !16
  %77 = load i32, ptr %7, align 4, !tbaa !16
  %78 = add nsw i32 %76, %77
  %79 = ashr i32 %78, 11
  %80 = trunc i32 %79 to i16
  %81 = load ptr, ptr %2, align 8, !tbaa !14
  %82 = load i32, ptr %4, align 4, !tbaa !16
  %83 = mul nsw i32 %82, 4
  %84 = add nsw i32 %83, 1
  %85 = sext i32 %84 to i64
  %86 = getelementptr inbounds i16, ptr %81, i64 %85
  store i16 %80, ptr %86, align 2, !tbaa !18
  %87 = load i32, ptr %6, align 4, !tbaa !16
  %88 = load i32, ptr %7, align 4, !tbaa !16
  %89 = sub nsw i32 %87, %88
  %90 = ashr i32 %89, 11
  %91 = trunc i32 %90 to i16
  %92 = load ptr, ptr %2, align 8, !tbaa !14
  %93 = load i32, ptr %4, align 4, !tbaa !16
  %94 = mul nsw i32 %93, 4
  %95 = add nsw i32 %94, 2
  %96 = sext i32 %95 to i64
  %97 = getelementptr inbounds i16, ptr %92, i64 %96
  store i16 %91, ptr %97, align 2, !tbaa !18
  %98 = load i32, ptr %5, align 4, !tbaa !16
  %99 = load i32, ptr %8, align 4, !tbaa !16
  %100 = sub nsw i32 %98, %99
  %101 = ashr i32 %100, 11
  %102 = trunc i32 %101 to i16
  %103 = load ptr, ptr %2, align 8, !tbaa !14
  %104 = load i32, ptr %4, align 4, !tbaa !16
  %105 = mul nsw i32 %104, 4
  %106 = add nsw i32 %105, 3
  %107 = sext i32 %106 to i64
  %108 = getelementptr inbounds i16, ptr %103, i64 %107
  store i16 %102, ptr %108, align 2, !tbaa !18
  call void @llvm.lifetime.end.p0(i64 4, ptr %8) #6
  call void @llvm.lifetime.end.p0(i64 4, ptr %7) #6
  call void @llvm.lifetime.end.p0(i64 4, ptr %6) #6
  call void @llvm.lifetime.end.p0(i64 4, ptr %5) #6
  br label %109

109:                                              ; preds = %14
  %110 = load i32, ptr %4, align 4, !tbaa !16
  %111 = add nsw i32 %110, 1
  store i32 %111, ptr %4, align 4, !tbaa !16
  br label %11, !llvm.loop !20

112:                                              ; preds = %11
  call void @llvm.lifetime.end.p0(i64 4, ptr %4) #6
  call void @llvm.lifetime.end.p0(i64 64, ptr %3) #6
  ret void
}