; Function Attrs: nofree norecurse nosync nounwind memory(argmem: readwrite) uwtable
define internal void @rv34_inv_transform_noround_c(ptr noundef captures(none) %0) #1 {
  %2 = alloca [16 x i32], align 16
  call void @llvm.lifetime.start.p0(i64 64, ptr nonnull %2) #4
  br label %3

3:                                                ; preds = %1, %3
  %indvars.iv = phi i64 [ 0, %1 ], [ %indvars.iv.next, %3 ]
  %4 = getelementptr inbounds nuw i16, ptr %0, i64 %indvars.iv
  %5 = load i16, ptr %4, align 2, !tbaa !12
  %6 = sext i16 %5 to i32
  %7 = getelementptr inbounds nuw i8, ptr %4, i64 16
  %8 = load i16, ptr %7, align 2, !tbaa !12
  %9 = sext i16 %8 to i32
  %10 = add nsw i32 %9, %6
  %11 = mul nsw i32 %10, 13
  %12 = sub nsw i32 %6, %9
  %13 = mul nsw i32 %12, 13
  %14 = getelementptr inbounds nuw i8, ptr %4, i64 8
  %15 = load i16, ptr %14, align 2, !tbaa !12
  %16 = sext i16 %15 to i32
  %17 = mul nsw i32 %16, 7
  %18 = getelementptr inbounds nuw i8, ptr %4, i64 24
  %19 = load i16, ptr %18, align 2, !tbaa !12
  %20 = sext i16 %19 to i32
  %.neg.i = mul nsw i32 %20, -17
  %21 = add nsw i32 %.neg.i, %17
  %22 = mul nsw i32 %16, 17
  %23 = mul nsw i32 %20, 7
  %24 = add nsw i32 %23, %22
  %25 = add nsw i32 %24, %11
  %.idx = shl nuw nsw i64 %indvars.iv, 4
  %26 = getelementptr inbounds nuw i8, ptr %2, i64 %.idx
  store i32 %25, ptr %26, align 16, !tbaa !14
  %27 = add nsw i32 %21, %13
  %28 = getelementptr inbounds nuw i8, ptr %26, i64 4
  store i32 %27, ptr %28, align 4, !tbaa !14
  %29 = sub nsw i32 %13, %21
  %30 = getelementptr inbounds nuw i8, ptr %26, i64 8
  store i32 %29, ptr %30, align 8, !tbaa !14
  %31 = sub nsw i32 %11, %24
  %32 = getelementptr inbounds nuw i8, ptr %26, i64 12
  store i32 %31, ptr %32, align 4, !tbaa !14
  %indvars.iv.next = add nuw nsw i64 %indvars.iv, 1
  %exitcond.not = icmp eq i64 %indvars.iv.next, 4
  br i1 %exitcond.not, label %rv34_row_transform.exit, label %3, !llvm.loop !16

rv34_row_transform.exit:                          ; preds = %3, %rv34_row_transform.exit
  %indvars.iv29 = phi i64 [ %indvars.iv.next30, %rv34_row_transform.exit ], [ 0, %3 ]
  %33 = getelementptr inbounds nuw [16 x i32], ptr %2, i64 0, i64 %indvars.iv29
  %34 = load i32, ptr %33, align 4, !tbaa !14
  %35 = or disjoint i64 %indvars.iv29, 8
  %36 = getelementptr inbounds nuw [16 x i32], ptr %2, i64 0, i64 %35
  %37 = load i32, ptr %36, align 4, !tbaa !14
  %38 = add nsw i32 %37, %34
  %39 = mul nsw i32 %38, 39
  %40 = sub nsw i32 %34, %37
  %41 = mul nsw i32 %40, 39
  %42 = or disjoint i64 %indvars.iv29, 4
  %43 = getelementptr inbounds nuw [16 x i32], ptr %2, i64 0, i64 %42
  %44 = load i32, ptr %43, align 4, !tbaa !14
  %45 = mul nsw i32 %44, 21
  %46 = or disjoint i64 %indvars.iv29, 12
  %47 = getelementptr inbounds nuw [16 x i32], ptr %2, i64 0, i64 %46
  %48 = load i32, ptr %47, align 4, !tbaa !14
  %.neg = mul i32 %48, -51
  %49 = add i32 %.neg, %45
  %50 = mul nsw i32 %44, 51
  %51 = mul nsw i32 %48, 21
  %52 = add nsw i32 %51, %50
  %53 = add nsw i32 %52, %39
  %54 = lshr i32 %53, 11
  %55 = trunc i32 %54 to i16
  %.idx33 = shl nuw nsw i64 %indvars.iv29, 3
  %56 = getelementptr inbounds nuw i8, ptr %0, i64 %.idx33
  store i16 %55, ptr %56, align 2, !tbaa !12
  %57 = add nsw i32 %49, %41
  %58 = lshr i32 %57, 11
  %59 = trunc i32 %58 to i16
  %60 = getelementptr inbounds nuw i8, ptr %56, i64 2
  store i16 %59, ptr %60, align 2, !tbaa !12
  %61 = sub nsw i32 %41, %49
  %62 = lshr i32 %61, 11
  %63 = trunc i32 %62 to i16
  %64 = getelementptr inbounds nuw i8, ptr %56, i64 4
  store i16 %63, ptr %64, align 2, !tbaa !12
  %65 = sub nsw i32 %39, %52
  %66 = lshr i32 %65, 11
  %67 = trunc i32 %66 to i16
  %68 = getelementptr inbounds nuw i8, ptr %56, i64 6
  store i16 %67, ptr %68, align 2, !tbaa !12
  %indvars.iv.next30 = add nuw nsw i64 %indvars.iv29, 1
  %exitcond32.not = icmp eq i64 %indvars.iv.next30, 4
  br i1 %exitcond32.not, label %69, label %rv34_row_transform.exit, !llvm.loop !18

69:                                               ; preds = %rv34_row_transform.exit
  call void @llvm.lifetime.end.p0(i64 64, ptr nonnull %2) #4
  ret void
}